target datalayout = "e-m:e-p270:32:32-p271:32:32-p272:64:64-i64:64-i128:128-f80:128-n8:16:32:64-S128"
target triple = "x86_64-pc-linux-gnu"

%struct.lowpan_context_key = type { i16, i8 }

; Function Attrs: nounwind null_pointer_is_valid sspstrong uwtable
define internal i32 @lowpan_context_hash(ptr noundef %0) #7 {
  %2 = alloca ptr, align 8
  store ptr %0, ptr %2, align 8
  %3 = load ptr, ptr %2, align 8
  %4 = getelementptr inbounds nuw %struct.lowpan_context_key, ptr %3, i32 0, i32 1
  %5 = load i8, ptr %4, align 2
  %6 = zext i8 %5 to i32
  %7 = load ptr, ptr %2, align 8
  %8 = getelementptr inbounds nuw %struct.lowpan_context_key, ptr %7, i32 0, i32 0
  %9 = load i16, ptr %8, align 2
  %10 = zext i16 %9 to i32
  %11 = shl i32 %10, 8
  %12 = or i32 %6, %11
  ret i32 %12
}