; Function Attrs: mustprogress nofree norecurse nosync nounwind null_pointer_is_valid sspstrong willreturn memory(argmem: read) uwtable
define internal range(i32 0, 16777216) i32 @lowpan_context_hash(ptr noundef readonly captures(none) %0) #5 {
  %2 = getelementptr inbounds nuw i8, ptr %0, i64 2
  %3 = load i8, ptr %2, align 2
  %4 = zext i8 %3 to i32
  %5 = load i16, ptr %0, align 2
  %6 = zext i16 %5 to i32
  %7 = shl nuw nsw i32 %6, 8
  %8 = or disjoint i32 %7, %4
  ret i32 %8
}